target datalayout = "e-m:e-p270:32:32-p271:32:32-p272:64:64-i64:64-i128:128-f80:128-n8:16:32:64-S128"
target triple = "x86_64-pc-linux-gnu"

; Function Attrs: nounwind uwtable
define dso_local zeroext i1 @Curl_auth_digest_get_pair(ptr noundef %0, ptr noundef %1, ptr noundef %2, ptr noundef %3) #0 {
  %5 = alloca i1, align 1
  %6 = alloca ptr, align 8
  %7 = alloca ptr, align 8
  %8 = alloca ptr, align 8
  %9 = alloca ptr, align 8
  %10 = alloca i32, align 4
  %11 = alloca i8, align 1
  %12 = alloca i8, align 1
  store ptr %0, ptr %6, align 8
  store ptr %1, ptr %7, align 8
  store ptr %2, ptr %8, align 8
  store ptr %3, ptr %9, align 8
  store i8 0, ptr %11, align 1
  store i8 0, ptr %12, align 1
  store i32 255, ptr %10, align 4
  br label %13

13:                                               ; preds = %29, %4
  %14 = load ptr, ptr %6, align 8
  %15 = load i8, ptr %14, align 1
  %16 = sext i8 %15 to i32
  %17 = icmp ne i32 %16, 0
  br i1 %17, label %18, label %27

18:                                               ; preds = %13
  %19 = load ptr, ptr %6, align 8
  %20 = load i8, ptr %19, align 1
  %21 = sext i8 %20 to i32
  %22 = icmp ne i32 %21, 61
  br i1 %22, label %23, label %27

23:                                               ; preds = %18
  %24 = load i32, ptr %10, align 4
  %25 = add nsw i32 %24, -1
  store i32 %25, ptr %10, align 4
  %26 = icmp ne i32 %24, 0
  br label %27

27:                                               ; preds = %23, %18, %13
  %28 = phi i1 [ false, %18 ], [ false, %13 ], [ %26, %23 ]
  br i1 %28, label %29, label %35

29:                                               ; preds = %27
  %30 = load ptr, ptr %6, align 8
  %31 = getelementptr inbounds i8, ptr %30, i32 1
  store ptr %31, ptr %6, align 8
  %32 = load i8, ptr %30, align 1
  %33 = load ptr, ptr %7, align 8
  %34 = getelementptr inbounds i8, ptr %33, i32 1
  store ptr %34, ptr %7, align 8
  store i8 %32, ptr %33, align 1
  br label %13, !llvm.loop !5

35:                                               ; preds = %27
  %36 = load ptr, ptr %7, align 8
  store i8 0, ptr %36, align 1
  %37 = load ptr, ptr %6, align 8
  %38 = getelementptr inbounds i8, ptr %37, i32 1
  store ptr %38, ptr %6, align 8
  %39 = load i8, ptr %37, align 1
  %40 = sext i8 %39 to i32
  %41 = icmp ne i32 61, %40
  br i1 %41, label %42, label %43

42:                                               ; preds = %35
  store i1 false, ptr %5, align 1
  br label %107

43:                                               ; preds = %35
  %44 = load ptr, ptr %6, align 8
  %45 = load i8, ptr %44, align 1
  %46 = sext i8 %45 to i32
  %47 = icmp eq i32 34, %46
  br i1 %47, label %48, label %51

48:                                               ; preds = %43
  %49 = load ptr, ptr %6, align 8
  %50 = getelementptr inbounds i8, ptr %49, i32 1
  store ptr %50, ptr %6, align 8
  store i8 1, ptr %11, align 1
  br label %51

51:                                               ; preds = %48, %43
  store i32 1023, ptr %10, align 4
  br label %52

52:                                               ; preds = %96, %51
  %53 = load ptr, ptr %6, align 8
  %54 = load i8, ptr %53, align 1
  %55 = sext i8 %54 to i32
  %56 = icmp ne i32 %55, 0
  br i1 %56, label %57, label %61

57:                                               ; preds = %52
  %58 = load i32, ptr %10, align 4
  %59 = add nsw i32 %58, -1
  store i32 %59, ptr %10, align 4
  %60 = icmp ne i32 %58, 0
  br label %61

61:                                               ; preds = %57, %52
  %62 = phi i1 [ false, %52 ], [ %60, %57 ]
  br i1 %62, label %63, label %99

63:                                               ; preds = %61
  %64 = load i8, ptr %12, align 1
  %65 = trunc i8 %64 to i1
  br i1 %65, label %91, label %66

66:                                               ; preds = %63
  %67 = load ptr, ptr %6, align 8
  %68 = load i8, ptr %67, align 1
  %69 = sext i8 %68 to i32
  switch i32 %69, label %90 [
    i32 92, label %70
    i32 44, label %75
    i32 13, label %80
    i32 10, label %80
    i32 34, label %85
  ]

70:                                               ; preds = %66
  %71 = load i8, ptr %11, align 1
  %72 = trunc i8 %71 to i1
  br i1 %72, label %73, label %74

73:                                               ; preds = %70
  store i8 1, ptr %12, align 1
  br label %96

74:                                               ; preds = %70
  br label %90

75:                                               ; preds = %66
  %76 = load i8, ptr %11, align 1
  %77 = trunc i8 %76 to i1
  br i1 %77, label %79, label %78

78:                                               ; preds = %75
  store i32 0, ptr %10, align 4
  br label %96

79:                                               ; preds = %75
  br label %90

80:                                               ; preds = %66, %66
  %81 = load i8, ptr %11, align 1
  %82 = trunc i8 %81 to i1
  br i1 %82, label %83, label %84

83:                                               ; preds = %80
  store i1 false, ptr %5, align 1
  br label %107

84:                                               ; preds = %80
  store i32 0, ptr %10, align 4
  br label %96

85:                                               ; preds = %66
  %86 = load i8, ptr %11, align 1
  %87 = trunc i8 %86 to i1
  br i1 %87, label %88, label %89

88:                                               ; preds = %85
  store i32 0, ptr %10, align 4
  br label %96

89:                                               ; preds = %85
  store i1 false, ptr %5, align 1
  br label %107

90:                                               ; preds = %79, %74, %66
  br label %91

91:                                               ; preds = %90, %63
  store i8 0, ptr %12, align 1
  %92 = load ptr, ptr %6, align 8
  %93 = load i8, ptr %92, align 1
  %94 = load ptr, ptr %8, align 8
  %95 = getelementptr inbounds i8, ptr %94, i32 1
  store ptr %95, ptr %8, align 8
  store i8 %93, ptr %94, align 1
  br label %96

96:                                               ; preds = %91, %88, %84, %78, %73
  %97 = load ptr, ptr %6, align 8
  %98 = getelementptr inbounds i8, ptr %97, i32 1
  store ptr %98, ptr %6, align 8
  br label %52, !llvm.loop !7

99:                                               ; preds = %61
  %100 = load i8, ptr %12, align 1
  %101 = trunc i8 %100 to i1
  br i1 %101, label %102, label %103

102:                                              ; preds = %99
  store i1 false, ptr %5, align 1
  br label %107

103:                                              ; preds = %99
  %104 = load ptr, ptr %8, align 8
  store i8 0, ptr %104, align 1
  %105 = load ptr, ptr %6, align 8
  %106 = load ptr, ptr %9, align 8
  store ptr %105, ptr %106, align 8
  store i1 true, ptr %5, align 1
  br label %107

107:                                              ; preds = %103, %102, %89, %83, %42
  %108 = load i1, ptr %5, align 1
  ret i1 %108
}