; Function Attrs: nofree norecurse nosync nounwind memory(argmem: readwrite) uwtable
define dso_local noundef zeroext i1 @Curl_auth_digest_get_pair(ptr noundef %0, ptr noundef writeonly captures(none) %1, ptr noundef writeonly captures(none) %2, ptr noundef writeonly captures(none) %3) local_unnamed_addr #0 {
  br label %5

5:                                                ; preds = %8, %4
  %.033 = phi ptr [ %0, %4 ], [ %10, %8 ]
  %.032 = phi ptr [ %1, %4 ], [ %11, %8 ]
  %.027 = phi i32 [ 255, %4 ], [ %9, %8 ]
  %6 = load i8, ptr %.033, align 1
  switch i8 %6, label %7 [
    i8 0, label %.critedge
    i8 61, label %.critedge
  ]

7:                                                ; preds = %5
  %.not39 = icmp eq i32 %.027, 0
  br i1 %.not39, label %.critedge, label %8

8:                                                ; preds = %7
  %9 = add nsw i32 %.027, -1
  %10 = getelementptr inbounds nuw i8, ptr %.033, i64 1
  %11 = getelementptr inbounds nuw i8, ptr %.032, i64 1
  store i8 %6, ptr %.032, align 1
  br label %5, !llvm.loop !5

.critedge:                                        ; preds = %5, %5, %7
  store i8 0, ptr %.032, align 1
  %12 = load i8, ptr %.033, align 1
  %.not40 = icmp eq i8 %12, 61
  br i1 %.not40, label %13, label %.loopexit

13:                                               ; preds = %.critedge
  %14 = getelementptr inbounds nuw i8, ptr %.033, i64 1
  %15 = load i8, ptr %14, align 1
  %.fr62 = freeze i8 %15
  %16 = icmp eq i8 %.fr62, 34
  %17 = getelementptr inbounds nuw i8, ptr %.033, i64 2
  %spec.select = select i1 %16, ptr %17, ptr %14
  %18 = load i8, ptr %spec.select, align 1
  %.not4146 = icmp eq i8 %18, 0
  br i1 %.not4146, label %.critedge2.thread, label %.lr.ph

.lr.ph:                                           ; preds = %13
  br i1 %16, label %.lr.ph.split.us, label %.lr.ph.split.split

.lr.ph.split.us:                                  ; preds = %.lr.ph, %27
  %19 = phi i8 [ %29, %27 ], [ %18, %.lr.ph ]
  %.050.us = phi i8 [ %.1.us, %27 ], [ 0, %.lr.ph ]
  %.12849.us = phi i32 [ %.2.us, %27 ], [ 1023, %.lr.ph ]
  %.03048.us = phi ptr [ %.131.us, %27 ], [ %2, %.lr.ph ]
  %.23547.us = phi ptr [ %28, %27 ], [ %17, %.lr.ph ]
  %20 = add nsw i32 %.12849.us, -1
  %.not42.us = icmp eq i32 %.12849.us, 0
  br i1 %.not42.us, label %.critedge2, label %21

21:                                               ; preds = %.lr.ph.split.us
  %22 = trunc nuw i8 %.050.us to i1
  br i1 %22, label %25, label %23

23:                                               ; preds = %21
  switch i8 %19, label %25 [
    i8 92, label %24
    i8 34, label %27
    i8 13, label %.loopexit
    i8 10, label %.loopexit
  ]

24:                                               ; preds = %23
  br label %27

25:                                               ; preds = %23, %21
  %26 = getelementptr inbounds nuw i8, ptr %.03048.us, i64 1
  store i8 %19, ptr %.03048.us, align 1
  br label %27

27:                                               ; preds = %23, %24, %25
  %.131.us = phi ptr [ %26, %25 ], [ %.03048.us, %24 ], [ %.03048.us, %23 ]
  %.2.us = phi i32 [ %20, %25 ], [ %20, %24 ], [ 0, %23 ]
  %.1.us = phi i8 [ 0, %25 ], [ 1, %24 ], [ 0, %23 ]
  %28 = getelementptr inbounds nuw i8, ptr %.23547.us, i64 1
  %29 = load i8, ptr %28, align 1
  %.not41.us = icmp eq i8 %29, 0
  br i1 %.not41.us, label %.critedge2, label %.lr.ph.split.us, !llvm.loop !7

.lr.ph.split.split:                               ; preds = %.lr.ph, %35
  %30 = phi i8 [ %37, %35 ], [ %18, %.lr.ph ]
  %.12849 = phi i32 [ %.2, %35 ], [ 1023, %.lr.ph ]
  %.03048 = phi ptr [ %.131, %35 ], [ %2, %.lr.ph ]
  %.23547 = phi ptr [ %36, %35 ], [ %14, %.lr.ph ]
  %31 = add nsw i32 %.12849, -1
  %.not42 = icmp eq i32 %.12849, 0
  br i1 %.not42, label %.critedge2.thread, label %32

32:                                               ; preds = %.lr.ph.split.split
  switch i8 %30, label %33 [
    i8 34, label %.loopexit
    i8 44, label %35
    i8 13, label %35
    i8 10, label %35
  ]

33:                                               ; preds = %32
  %34 = getelementptr inbounds nuw i8, ptr %.03048, i64 1
  store i8 %30, ptr %.03048, align 1
  br label %35

35:                                               ; preds = %32, %32, %32, %33
  %.131 = phi ptr [ %34, %33 ], [ %.03048, %32 ], [ %.03048, %32 ], [ %.03048, %32 ]
  %.2 = phi i32 [ %31, %33 ], [ 0, %32 ], [ 0, %32 ], [ 0, %32 ]
  %36 = getelementptr inbounds nuw i8, ptr %.23547, i64 1
  %37 = load i8, ptr %36, align 1
  %.not41 = icmp eq i8 %37, 0
  br i1 %.not41, label %.critedge2.thread, label %.lr.ph.split.split, !llvm.loop !7

.critedge2:                                       ; preds = %.lr.ph.split.us, %27
  %.235.lcssa.ph = phi ptr [ %.23547.us, %.lr.ph.split.us ], [ %28, %27 ]
  %.030.lcssa.ph = phi ptr [ %.03048.us, %.lr.ph.split.us ], [ %.131.us, %27 ]
  %.0.lcssa.ph = phi i8 [ %.050.us, %.lr.ph.split.us ], [ %.1.us, %27 ]
  %38 = trunc nuw i8 %.0.lcssa.ph to i1
  br i1 %38, label %.loopexit, label %.critedge2.thread

.critedge2.thread:                                ; preds = %.lr.ph.split.split, %35, %13, %.critedge2
  %.030.lcssa73 = phi ptr [ %.030.lcssa.ph, %.critedge2 ], [ %2, %13 ], [ %.03048, %.lr.ph.split.split ], [ %.131, %35 ]
  %.235.lcssa72 = phi ptr [ %.235.lcssa.ph, %.critedge2 ], [ %spec.select, %13 ], [ %.23547, %.lr.ph.split.split ], [ %36, %35 ]
  store i8 0, ptr %.030.lcssa73, align 1
  store ptr %.235.lcssa72, ptr %3, align 8
  br label %.loopexit

.loopexit:                                        ; preds = %32, %23, %23, %.critedge2, %.critedge, %.critedge2.thread
  %.029 = phi i1 [ true, %.critedge2.thread ], [ false, %.critedge ], [ false, %.critedge2 ], [ false, %23 ], [ false, %23 ], [ false, %32 ]
  ret i1 %.029
}